; Function Attrs: mustprogress nounwind uwtable
define hidden void @_ZN4cvc58internal9TCtxStack5clearEv(ptr noundef nonnull align 8 captures(none) dereferenceable(40) %0) local_unnamed_addr #7 align 2 personality ptr @__gxx_personality_v0 {
  %2 = getelementptr inbounds nuw i8, ptr %0, i64 8
  %3 = load ptr, ptr %2, align 8, !tbaa !38
  %4 = getelementptr inbounds nuw i8, ptr %0, i64 16
  %5 = load ptr, ptr %4, align 8, !tbaa !24
  %.not.i.i = icmp eq ptr %5, %3
  br i1 %.not.i.i, label %_ZNSt6vectorISt4pairIN4cvc58internal12NodeTemplateILb1EEEjESaIS5_EE5clearEv.exit, label %.lr.ph.i.i.i.i.i

.lr.ph.i.i.i.i.i:                                 ; preds = %1, %_ZSt8_DestroyISt4pairIN4cvc58internal12NodeTemplateILb1EEEjEEvPT_.exit.i.i.i.i.i
  %.05.i.i.i.i.i = phi ptr [ %19, %_ZSt8_DestroyISt4pairIN4cvc58internal12NodeTemplateILb1EEEjEEvPT_.exit.i.i.i.i.i ], [ %3, %1 ]
  %6 = load ptr, ptr %.05.i.i.i.i.i, align 8, !tbaa !16
  %7 = load i64, ptr %6, align 8
  %8 = and i64 %7, 1152920405095219200
  %.not.i.i.i.i.i.i.i.i.i = icmp eq i64 %8, 1152920405095219200
  br i1 %.not.i.i.i.i.i.i.i.i.i, label %_ZSt8_DestroyISt4pairIN4cvc58internal12NodeTemplateILb1EEEjEEvPT_.exit.i.i.i.i.i, label %9, !prof !20

9:                                                ; preds = %.lr.ph.i.i.i.i.i
  %10 = add i64 %7, 1152920405095219200
  %11 = and i64 %10, 1152920405095219200
  %12 = and i64 %7, -1152920405095219201
  %13 = or disjoint i64 %11, %12
  store i64 %13, ptr %6, align 8
  %14 = icmp eq i64 %11, 0
  br i1 %14, label %15, label %_ZSt8_DestroyISt4pairIN4cvc58internal12NodeTemplateILb1EEEjEEvPT_.exit.i.i.i.i.i, !prof !20

15:                                               ; preds = %9
  invoke void @_ZN4cvc58internal4expr9NodeValue15markForDeletionEv(ptr noundef nonnull align 8 dereferenceable(24) %6)
          to label %_ZSt8_DestroyISt4pairIN4cvc58internal12NodeTemplateILb1EEEjEEvPT_.exit.i.i.i.i.i unwind label %16

16:                                               ; preds = %15
  %17 = landingpad { ptr, i32 }
          catch ptr null
  %18 = extractvalue { ptr, i32 } %17, 0
  tail call void @__clang_call_terminate(ptr %18) #20
  unreachable

_ZSt8_DestroyISt4pairIN4cvc58internal12NodeTemplateILb1EEEjEEvPT_.exit.i.i.i.i.i: ; preds = %15, %9, %.lr.ph.i.i.i.i.i
  %19 = getelementptr inbounds nuw i8, ptr %.05.i.i.i.i.i, i64 16
  %.not.i.i.i.i.i = icmp eq ptr %19, %5
  br i1 %.not.i.i.i.i.i, label %_ZSt8_DestroyIPSt4pairIN4cvc58internal12NodeTemplateILb1EEEjES5_EvT_S7_RSaIT0_E.exit.i.i, label %.lr.ph.i.i.i.i.i, !llvm.loop !39

_ZSt8_DestroyIPSt4pairIN4cvc58internal12NodeTemplateILb1EEEjES5_EvT_S7_RSaIT0_E.exit.i.i: ; preds = %_ZSt8_DestroyISt4pairIN4cvc58internal12NodeTemplateILb1EEEjEEvPT_.exit.i.i.i.i.i
  store ptr %3, ptr %4, align 8, !tbaa !24
  br label %_ZNSt6vectorISt4pairIN4cvc58internal12NodeTemplateILb1EEEjESaIS5_EE5clearEv.exit

_ZNSt6vectorISt4pairIN4cvc58internal12NodeTemplateILb1EEEjESaIS5_EE5clearEv.exit: ; preds = %1, %_ZSt8_DestroyIPSt4pairIN4cvc58internal12NodeTemplateILb1EEEjES5_EvT_S7_RSaIT0_E.exit.i.i
  ret void
}